target datalayout = "e-m:e-p270:32:32-p271:32:32-p272:64:64-i64:64-i128:128-f80:128-n8:16:32:64-S128"
target triple = "x86_64-pc-linux-gnu"

%"class.llvm::Register" = type { i32 }
%"class.llvm::StackOffset" = type { i64, i64 }

; Function Attrs: mustprogress nounwind uwtable
define linkonce_odr hidden void @_ZN4llvm11StackOffsetC2Ell(ptr noundef nonnull align 8 dereferenceable(16) %0, i64 noundef %1, i64 noundef %2) unnamed_addr #0 comdat align 2 {
  %4 = alloca ptr, align 8
  %5 = alloca i64, align 8
  %6 = alloca i64, align 8
  store ptr %0, ptr %4, align 8
  store i64 %1, ptr %5, align 8
  store i64 %2, ptr %6, align 8
  %7 = load ptr, ptr %4, align 8
  %8 = getelementptr inbounds nuw %"class.llvm::StackOffset", ptr %7, i32 0, i32 0
  %9 = load i64, ptr %5, align 8
  store i64 %9, ptr %8, align 8
  %10 = getelementptr inbounds nuw %"class.llvm::StackOffset", ptr %7, i32 0, i32 1
  %11 = load i64, ptr %6, align 8
  store i64 %11, ptr %10, align 8
  ret void
}

; Function Attrs: mustprogress nounwind uwtable
define linkonce_odr hidden { i64, i64 } @_ZN4llvm11StackOffset8getFixedEl(i64 noundef %0) #0 comdat align 2 {
  %2 = alloca %"class.llvm::StackOffset", align 8
  %3 = alloca i64, align 8
  store i64 %0, ptr %3, align 8
  %4 = load i64, ptr %3, align 8
  call void @_ZN4llvm11StackOffsetC2Ell(ptr noundef nonnull align 8 dereferenceable(16) %2, i64 noundef %4, i64 noundef 0)
  %5 = load { i64, i64 }, ptr %2, align 8
  ret { i64, i64 } %5
}

; Function Attrs: mustprogress nounwind uwtable
define dso_local noundef zeroext i1 @_ZNK4llvm19AArch64RegisterInfo18isFrameOffsetLegalEPKNS_12MachineInstrENS_8RegisterEl(ptr noundef nonnull align 8 dereferenceable(320) %0, ptr noundef %1, i32 %2, i64 noundef %3) unnamed_addr #0 align 2 {
  %5 = alloca %"class.llvm::Register", align 4
  %6 = alloca ptr, align 8
  %7 = alloca ptr, align 8
  %8 = alloca i64, align 8
  %9 = alloca %"class.llvm::StackOffset", align 8
  %10 = getelementptr inbounds nuw %"class.llvm::Register", ptr %5, i32 0, i32 0
  store i32 %2, ptr %10, align 4
  store ptr %0, ptr %6, align 8
  store ptr %1, ptr %7, align 8
  store i64 %3, ptr %8, align 8
  %11 = load i64, ptr %8, align 8
  %12 = call { i64, i64 } @_ZN4llvm11StackOffset8getFixedEl(i64 noundef %11)
  %13 = getelementptr inbounds nuw { i64, i64 }, ptr %9, i32 0, i32 0
  %14 = extractvalue { i64, i64 } %12, 0
  store i64 %14, ptr %13, align 8
  %15 = getelementptr inbounds nuw { i64, i64 }, ptr %9, i32 0, i32 1
  %16 = extractvalue { i64, i64 } %12, 1
  store i64 %16, ptr %15, align 8
  %17 = load ptr, ptr %7, align 8
  %18 = call noundef i32 @_ZN4llvm25isAArch64FrameOffsetLegalERKNS_12MachineInstrERNS_11StackOffsetEPbPjPl(ptr noundef nonnull align 8 dereferenceable(70) %17, ptr noundef nonnull align 8 dereferenceable(16) %9, ptr noundef null, ptr noundef null, ptr noundef null)
  %19 = and i32 %18, 1
  %20 = icmp ne i32 %19, 0
  ret i1 %20
}