; Function Attrs: mustprogress nounwind uwtable
define dso_local noundef zeroext i1 @_ZNK4llvm19AArch64RegisterInfo18isFrameOffsetLegalEPKNS_12MachineInstrENS_8RegisterEl(ptr nocapture nonnull readnone align 8 %0, ptr noundef nonnull %1, i32 %2, i64 noundef %3) unnamed_addr #2 align 2 {
  %5 = alloca %"class.llvm::StackOffset", align 8
  store i64 %3, ptr %5, align 8
  %6 = getelementptr inbounds nuw i8, ptr %5, i64 8
  store i64 0, ptr %6, align 8
  %7 = call noundef i32 @_ZN4llvm25isAArch64FrameOffsetLegalERKNS_12MachineInstrERNS_11StackOffsetEPbPjPl(ptr noundef nonnull align 8 dereferenceable(70) %1, ptr noundef nonnull align 8 dereferenceable(16) %5, ptr noundef null, ptr noundef null, ptr noundef null) #18
  %8 = and i32 %7, 1
  %9 = icmp ne i32 %8, 0
  ret i1 %9
}